target datalayout = "e-m:e-p270:32:32-p271:32:32-p272:64:64-i64:64-i128:128-f80:128-n8:16:32:64-S128"
target triple = "x86_64-pc-linux-gnu"

%struct.Abc_Ntk_t_ = type { i32, i32, ptr, ptr, ptr, ptr, ptr, ptr, ptr, ptr, ptr, ptr, ptr, [11 x i32], i32, i32, i32, i32, ptr, i32, ptr, ptr, i32, i32, i32, double, i32, %struct.Vec_Int_t_, ptr, ptr, ptr, ptr, ptr, float, i32, ptr, ptr, ptr, ptr, ptr, ptr, ptr, ptr, ptr, ptr, ptr, ptr, ptr, ptr, ptr, ptr, ptr, ptr, ptr, ptr, ptr, ptr }
%struct.Vec_Int_t_ = type { i32, i32, ptr }
%struct.Abc_Obj_t_ = type { ptr, ptr, i32, i32, %struct.Vec_Int_t_, %struct.Vec_Int_t_, %union.anon, %union.anon.0 }
%union.anon = type { ptr }
%union.anon.0 = type { ptr }
%struct.Vec_Ptr_t_ = type { i32, i32, ptr }

; Function Attrs: inlinehint nounwind uwtable
define internal ptr @Abc_ObjFanin(ptr noundef %0, i32 noundef %1) #2 {
  %3 = alloca ptr, align 8
  %4 = alloca i32, align 4
  store ptr %0, ptr %3, align 8, !tbaa !37
  store i32 %1, ptr %4, align 4, !tbaa !10
  %5 = load ptr, ptr %3, align 8, !tbaa !37
  %6 = getelementptr inbounds nuw %struct.Abc_Obj_t_, ptr %5, i32 0, i32 0
  %7 = load ptr, ptr %6, align 8, !tbaa !49
  %8 = getelementptr inbounds nuw %struct.Abc_Ntk_t_, ptr %7, i32 0, i32 5
  %9 = load ptr, ptr %8, align 8, !tbaa !51
  %10 = getelementptr inbounds nuw %struct.Vec_Ptr_t_, ptr %9, i32 0, i32 2
  %11 = load ptr, ptr %10, align 8, !tbaa !52
  %12 = load ptr, ptr %3, align 8, !tbaa !37
  %13 = getelementptr inbounds nuw %struct.Abc_Obj_t_, ptr %12, i32 0, i32 4
  %14 = getelementptr inbounds nuw %struct.Vec_Int_t_, ptr %13, i32 0, i32 2
  %15 = load ptr, ptr %14, align 8, !tbaa !54
  %16 = load i32, ptr %4, align 4, !tbaa !10
  %17 = sext i32 %16 to i64
  %18 = getelementptr inbounds i32, ptr %15, i64 %17
  %19 = load i32, ptr %18, align 4, !tbaa !10
  %20 = sext i32 %19 to i64
  %21 = getelementptr inbounds ptr, ptr %11, i64 %20
  %22 = load ptr, ptr %21, align 8, !tbaa !55
  ret ptr %22
}

; Function Attrs: nounwind uwtable
define i32 @Abc_ObjSopSimulate(ptr noundef %0) #0 {
  %2 = alloca ptr, align 8
  %3 = alloca ptr, align 8
  %4 = alloca ptr, align 8
  %5 = alloca i32, align 4
  %6 = alloca i32, align 4
  %7 = alloca i32, align 4
  %8 = alloca i32, align 4
  %9 = alloca i32, align 4
  %10 = alloca i32, align 4
  store ptr %0, ptr %2, align 8, !tbaa !37
  call void @llvm.lifetime.start.p0(i64 8, ptr %3) #10
  call void @llvm.lifetime.start.p0(i64 8, ptr %4) #10
  %11 = load ptr, ptr %2, align 8, !tbaa !37
  %12 = getelementptr inbounds nuw %struct.Abc_Obj_t_, ptr %11, i32 0, i32 6
  %13 = load ptr, ptr %12, align 8, !tbaa !39
  store ptr %13, ptr %4, align 8, !tbaa !33
  call void @llvm.lifetime.start.p0(i64 4, ptr %5) #10
  call void @llvm.lifetime.start.p0(i64 4, ptr %6) #10
  call void @llvm.lifetime.start.p0(i64 4, ptr %7) #10
  call void @llvm.lifetime.start.p0(i64 4, ptr %8) #10
  call void @llvm.lifetime.start.p0(i64 4, ptr %9) #10
  call void @llvm.lifetime.start.p0(i64 4, ptr %10) #10
  store i32 0, ptr %8, align 4, !tbaa !10
  %14 = load ptr, ptr %4, align 8, !tbaa !33
  %15 = call i32 @Abc_SopGetVarNum(ptr noundef %14)
  store i32 %15, ptr %5, align 4, !tbaa !10
  %16 = load ptr, ptr %4, align 8, !tbaa !33
  store ptr %16, ptr %3, align 8, !tbaa !33
  br label %17

17:                                               ; preds = %76, %1
  %18 = load ptr, ptr %3, align 8, !tbaa !33
  %19 = load i8, ptr %18, align 1, !tbaa !39
  %20 = icmp ne i8 %19, 0
  br i1 %20, label %21, label %82

21:                                               ; preds = %17
  store i32 1, ptr %9, align 4, !tbaa !10
  store i32 0, ptr %7, align 4, !tbaa !10
  br label %22

22:                                               ; preds = %69, %21
  %23 = load ptr, ptr %3, align 8, !tbaa !33
  %24 = load i32, ptr %7, align 4, !tbaa !10
  %25 = sext i32 %24 to i64
  %26 = getelementptr inbounds i8, ptr %23, i64 %25
  %27 = load i8, ptr %26, align 1, !tbaa !39
  %28 = sext i8 %27 to i32
  %29 = icmp ne i32 %28, 32
  br i1 %29, label %30, label %38

30:                                               ; preds = %22
  %31 = load ptr, ptr %3, align 8, !tbaa !33
  %32 = load i32, ptr %7, align 4, !tbaa !10
  %33 = sext i32 %32 to i64
  %34 = getelementptr inbounds i8, ptr %31, i64 %33
  %35 = load i8, ptr %34, align 1, !tbaa !39
  %36 = sext i8 %35 to i32
  store i32 %36, ptr %6, align 4, !tbaa !10
  %37 = icmp ne i32 %36, 0
  br label %38

38:                                               ; preds = %30, %22
  %39 = phi i1 [ false, %22 ], [ %37, %30 ]
  br i1 %39, label %40, label %72

40:                                               ; preds = %38
  %41 = load i32, ptr %6, align 4, !tbaa !10
  %42 = icmp eq i32 %41, 48
  br i1 %42, label %43, label %52

43:                                               ; preds = %40
  %44 = load ptr, ptr %2, align 8, !tbaa !37
  %45 = load i32, ptr %7, align 4, !tbaa !10
  %46 = call ptr @Abc_ObjFanin(ptr noundef %44, i32 noundef %45)
  %47 = getelementptr inbounds nuw %struct.Abc_Obj_t_, ptr %46, i32 0, i32 7
  %48 = load ptr, ptr %47, align 8, !tbaa !39
  %49 = ptrtoint ptr %48 to i64
  %50 = trunc i64 %49 to i32
  %51 = xor i32 1, %50
  store i32 %51, ptr %10, align 4, !tbaa !10
  br label %65

52:                                               ; preds = %40
  %53 = load i32, ptr %6, align 4, !tbaa !10
  %54 = icmp eq i32 %53, 49
  br i1 %54, label %55, label %63

55:                                               ; preds = %52
  %56 = load ptr, ptr %2, align 8, !tbaa !37
  %57 = load i32, ptr %7, align 4, !tbaa !10
  %58 = call ptr @Abc_ObjFanin(ptr noundef %56, i32 noundef %57)
  %59 = getelementptr inbounds nuw %struct.Abc_Obj_t_, ptr %58, i32 0, i32 7
  %60 = load ptr, ptr %59, align 8, !tbaa !39
  %61 = ptrtoint ptr %60 to i64
  %62 = trunc i64 %61 to i32
  store i32 %62, ptr %10, align 4, !tbaa !10
  br label %64

63:                                               ; preds = %52
  br label %69

64:                                               ; preds = %55
  br label %65

65:                                               ; preds = %64, %43
  %66 = load i32, ptr %10, align 4, !tbaa !10
  %67 = load i32, ptr %9, align 4, !tbaa !10
  %68 = and i32 %67, %66
  store i32 %68, ptr %9, align 4, !tbaa !10
  br label %69

69:                                               ; preds = %65, %63
  %70 = load i32, ptr %7, align 4, !tbaa !10
  %71 = add nsw i32 %70, 1
  store i32 %71, ptr %7, align 4, !tbaa !10
  br label %22, !llvm.loop !47

72:                                               ; preds = %38
  %73 = load i32, ptr %9, align 4, !tbaa !10
  %74 = load i32, ptr %8, align 4, !tbaa !10
  %75 = or i32 %74, %73
  store i32 %75, ptr %8, align 4, !tbaa !10
  br label %76

76:                                               ; preds = %72
  %77 = load i32, ptr %5, align 4, !tbaa !10
  %78 = add nsw i32 %77, 3
  %79 = load ptr, ptr %3, align 8, !tbaa !33
  %80 = sext i32 %78 to i64
  %81 = getelementptr inbounds i8, ptr %79, i64 %80
  store ptr %81, ptr %3, align 8, !tbaa !33
  br label %17, !llvm.loop !48

82:                                               ; preds = %17
  %83 = load ptr, ptr %4, align 8, !tbaa !33
  %84 = call i32 @Abc_SopGetPhase(ptr noundef %83)
  %85 = icmp ne i32 %84, 0
  br i1 %85, label %89, label %86

86:                                               ; preds = %82
  %87 = load i32, ptr %8, align 4, !tbaa !10
  %88 = xor i32 %87, 1
  store i32 %88, ptr %8, align 4, !tbaa !10
  br label %89

89:                                               ; preds = %86, %82
  %90 = load i32, ptr %8, align 4, !tbaa !10
  call void @llvm.lifetime.end.p0(i64 4, ptr %10) #10
  call void @llvm.lifetime.end.p0(i64 4, ptr %9) #10
  call void @llvm.lifetime.end.p0(i64 4, ptr %8) #10
  call void @llvm.lifetime.end.p0(i64 4, ptr %7) #10
  call void @llvm.lifetime.end.p0(i64 4, ptr %6) #10
  call void @llvm.lifetime.end.p0(i64 4, ptr %5) #10
  call void @llvm.lifetime.end.p0(i64 8, ptr %4) #10
  call void @llvm.lifetime.end.p0(i64 8, ptr %3) #10
  ret i32 %90
}