; Function Attrs: nounwind uwtable
define range(i32 0, 2) i32 @Abc_ObjSopSimulate(ptr noundef readonly captures(none) %0) local_unnamed_addr #0 {
  %2 = getelementptr inbounds nuw i8, ptr %0, i64 56
  %3 = load ptr, ptr %2, align 8, !tbaa !38
  %4 = tail call i32 @Abc_SopGetVarNum(ptr noundef %3) #15
  %5 = load i8, ptr %3, align 1, !tbaa !38
  %.not35 = icmp eq i8 %5, 0
  br i1 %.not35, label %._crit_edge, label %.preheader.lr.ph

.preheader.lr.ph:                                 ; preds = %1
  %6 = getelementptr i8, ptr %0, i64 32
  %7 = sext i32 %4 to i64
  br label %.preheader

.preheader:                                       ; preds = %.preheader.lr.ph, %.critedge
  %8 = phi i8 [ %5, %.preheader.lr.ph ], [ %42, %.critedge ]
  %.02437 = phi i32 [ 0, %.preheader.lr.ph ], [ %39, %.critedge ]
  %.02736 = phi ptr [ %3, %.preheader.lr.ph ], [ %41, %.critedge ]
  br label %9

9:                                                ; preds = %.preheader, %38
  %10 = phi i8 [ %8, %.preheader ], [ %.pre, %38 ]
  %indvars.iv = phi i64 [ 0, %.preheader ], [ %indvars.iv.next, %38 ]
  %.023 = phi i32 [ 1, %.preheader ], [ %.1, %38 ]
  switch i8 %10, label %38 [
    i8 32, label %.critedge
    i8 0, label %.critedge
    i8 48, label %11
    i8 49, label %24
  ]

11:                                               ; preds = %9
  %.val = load ptr, ptr %0, align 8, !tbaa !41
  %.val32 = load ptr, ptr %6, align 8, !tbaa !44
  %12 = getelementptr i8, ptr %.val, i64 32
  %.val.val = load ptr, ptr %12, align 8, !tbaa !45
  %13 = getelementptr i8, ptr %.val.val, i64 8
  %.val.val.val = load ptr, ptr %13, align 8, !tbaa !36
  %14 = getelementptr inbounds nuw i32, ptr %.val32, i64 %indvars.iv
  %15 = load i32, ptr %14, align 4, !tbaa !27
  %16 = sext i32 %15 to i64
  %17 = getelementptr inbounds ptr, ptr %.val.val.val, i64 %16
  %18 = load ptr, ptr %17, align 8, !tbaa !37
  %19 = getelementptr inbounds nuw i8, ptr %18, i64 64
  %20 = load ptr, ptr %19, align 8, !tbaa !38
  %21 = ptrtoint ptr %20 to i64
  %22 = trunc i64 %21 to i32
  %23 = xor i32 %22, 1
  br label %36

24:                                               ; preds = %9
  %.val33 = load ptr, ptr %0, align 8, !tbaa !41
  %.val34 = load ptr, ptr %6, align 8, !tbaa !44
  %25 = getelementptr i8, ptr %.val33, i64 32
  %.val33.val = load ptr, ptr %25, align 8, !tbaa !45
  %26 = getelementptr i8, ptr %.val33.val, i64 8
  %.val33.val.val = load ptr, ptr %26, align 8, !tbaa !36
  %27 = getelementptr inbounds nuw i32, ptr %.val34, i64 %indvars.iv
  %28 = load i32, ptr %27, align 4, !tbaa !27
  %29 = sext i32 %28 to i64
  %30 = getelementptr inbounds ptr, ptr %.val33.val.val, i64 %29
  %31 = load ptr, ptr %30, align 8, !tbaa !37
  %32 = getelementptr inbounds nuw i8, ptr %31, i64 64
  %33 = load ptr, ptr %32, align 8, !tbaa !38
  %34 = ptrtoint ptr %33 to i64
  %35 = trunc i64 %34 to i32
  br label %36

36:                                               ; preds = %24, %11
  %.0 = phi i32 [ %23, %11 ], [ %35, %24 ]
  %37 = and i32 %.0, %.023
  br label %38

38:                                               ; preds = %9, %36
  %.1 = phi i32 [ %37, %36 ], [ %.023, %9 ]
  %indvars.iv.next = add nuw nsw i64 %indvars.iv, 1
  %.phi.trans.insert = getelementptr inbounds nuw i8, ptr %.02736, i64 %indvars.iv.next
  %.pre = load i8, ptr %.phi.trans.insert, align 1, !tbaa !38
  br label %9, !llvm.loop !46

.critedge:                                        ; preds = %9, %9
  %39 = or i32 %.023, %.02437
  %40 = getelementptr i8, ptr %.02736, i64 %7
  %41 = getelementptr i8, ptr %40, i64 3
  %42 = load i8, ptr %41, align 1, !tbaa !38
  %.not = icmp eq i8 %42, 0
  br i1 %.not, label %._crit_edge, label %.preheader, !llvm.loop !47

._crit_edge:                                      ; preds = %.critedge, %1
  %.024.lcssa = phi i32 [ 0, %1 ], [ %39, %.critedge ]
  %43 = tail call i32 @Abc_SopGetPhase(ptr noundef nonnull %3) #15
  %.not29 = icmp eq i32 %43, 0
  %44 = zext i1 %.not29 to i32
  %spec.select = xor i32 %.024.lcssa, %44
  ret i32 %spec.select
}